target datalayout = "e-m:e-p270:32:32-p271:32:32-p272:64:64-i64:64-i128:128-f80:128-n8:16:32:64-S128"
target triple = "x86_64-pc-linux-gnu"

%struct.hostname = type { ptr, ptr, ptr, ptr }
%struct.proxy_info = type { %struct.hostname, i32, i8, ptr, ptr }

; Function Attrs: nounwind uwtable
define internal zeroext i1 @proxy_info_matches(ptr noundef %0, ptr noundef %1) #0 {
  %3 = alloca i1, align 1
  %4 = alloca ptr, align 8
  %5 = alloca ptr, align 8
  store ptr %0, ptr %4, align 8, !tbaa !330
  store ptr %1, ptr %5, align 8, !tbaa !330
  %6 = load ptr, ptr %4, align 8, !tbaa !330
  %7 = getelementptr inbounds nuw %struct.proxy_info, ptr %6, i32 0, i32 2
  %8 = load i8, ptr %7, align 4, !tbaa !332
  %9 = zext i8 %8 to i32
  %10 = load ptr, ptr %5, align 8, !tbaa !330
  %11 = getelementptr inbounds nuw %struct.proxy_info, ptr %10, i32 0, i32 2
  %12 = load i8, ptr %11, align 4, !tbaa !332
  %13 = zext i8 %12 to i32
  %14 = icmp eq i32 %9, %13
  br i1 %14, label %15, label %35

15:                                               ; preds = %2
  %16 = load ptr, ptr %4, align 8, !tbaa !330
  %17 = getelementptr inbounds nuw %struct.proxy_info, ptr %16, i32 0, i32 1
  %18 = load i32, ptr %17, align 8, !tbaa !336
  %19 = load ptr, ptr %5, align 8, !tbaa !330
  %20 = getelementptr inbounds nuw %struct.proxy_info, ptr %19, i32 0, i32 1
  %21 = load i32, ptr %20, align 8, !tbaa !336
  %22 = icmp eq i32 %18, %21
  br i1 %22, label %23, label %35

23:                                               ; preds = %15
  %24 = load ptr, ptr %4, align 8, !tbaa !330
  %25 = getelementptr inbounds nuw %struct.proxy_info, ptr %24, i32 0, i32 0
  %26 = getelementptr inbounds nuw %struct.hostname, ptr %25, i32 0, i32 2
  %27 = load ptr, ptr %26, align 8, !tbaa !338
  %28 = load ptr, ptr %5, align 8, !tbaa !330
  %29 = getelementptr inbounds nuw %struct.proxy_info, ptr %28, i32 0, i32 0
  %30 = getelementptr inbounds nuw %struct.hostname, ptr %29, i32 0, i32 2
  %31 = load ptr, ptr %30, align 8, !tbaa !338
  %32 = call i32 @curl_strequal(ptr noundef %27, ptr noundef %31)
  %33 = icmp ne i32 %32, 0
  br i1 %33, label %34, label %35

34:                                               ; preds = %23
  store i1 true, ptr %3, align 1
  br label %36

35:                                               ; preds = %23, %15, %2
  store i1 false, ptr %3, align 1
  br label %36

36:                                               ; preds = %35, %34
  %37 = load i1, ptr %3, align 1
  ret i1 %37
}