; Function Attrs: nounwind uwtable
define internal fastcc noundef zeroext i1 @proxy_info_matches(ptr noundef readonly captures(none) %0, ptr noundef readonly captures(none) %1) unnamed_addr #0 {
  %3 = getelementptr inbounds nuw i8, ptr %0, i64 36
  %4 = load i8, ptr %3, align 4, !tbaa !303
  %5 = getelementptr inbounds nuw i8, ptr %1, i64 36
  %6 = load i8, ptr %5, align 4, !tbaa !303
  %7 = icmp eq i8 %4, %6
  br i1 %7, label %8, label %20

8:                                                ; preds = %2
  %9 = getelementptr inbounds nuw i8, ptr %0, i64 32
  %10 = load i32, ptr %9, align 8, !tbaa !307
  %11 = getelementptr inbounds nuw i8, ptr %1, i64 32
  %12 = load i32, ptr %11, align 8, !tbaa !307
  %13 = icmp eq i32 %10, %12
  br i1 %13, label %14, label %20

14:                                               ; preds = %8
  %15 = getelementptr inbounds nuw i8, ptr %0, i64 16
  %16 = load ptr, ptr %15, align 8, !tbaa !309
  %17 = getelementptr inbounds nuw i8, ptr %1, i64 16
  %18 = load ptr, ptr %17, align 8, !tbaa !309
  %19 = tail call i32 @curl_strequal(ptr noundef %16, ptr noundef %18) #11
  %.not = icmp eq i32 %19, 0
  br i1 %.not, label %20, label %21

20:                                               ; preds = %14, %8, %2
  br label %21

21:                                               ; preds = %14, %20
  %.0 = phi i1 [ false, %20 ], [ true, %14 ]
  ret i1 %.0
}